; ModuleID = 'bench/linux/original/thread_self.ll'
source_filename = "bench/linux/original/thread_self.ll"
target datalayout = "e-m:e-p270:32:32-p271:32:32-p272:64:64-i64:64-i128:128-f80:128-n8:16:32:64-S128"
target triple = "x86_64-unknown-linux-gnu"

%struct.inode_operations = type { ptr, ptr, ptr, ptr, ptr, ptr, ptr, ptr, ptr, ptr, ptr, ptr, ptr, ptr, ptr, ptr, ptr, ptr, ptr, ptr, ptr, ptr, ptr, ptr, ptr, [56 x i8] }
%struct.pcpu_hot = type { %union.anon.12 }
%union.anon.12 = type { %struct.anon.13, [16 x i8] }
%struct.anon.13 = type { ptr, i32, i32, i64, i64, ptr, i16, i8 }

@.str = private unnamed_addr constant [12 x i8] c"thread-self\00", align 1
@thread_self_inum = internal global i32 0, section ".data..ro_after_init", align 4
@proc_thread_self_inode_operations = internal constant %struct.inode_operations { ptr null, ptr @proc_thread_self_get_link, ptr null, ptr null, ptr null, ptr null, ptr null, ptr null, ptr null, ptr null, ptr null, ptr null, ptr null, ptr null, ptr null, ptr null, ptr null, ptr null, ptr null, ptr null, ptr null, ptr null, ptr null, ptr null, ptr null, [56 x i8] undef }, align 64
@.str.1 = private unnamed_addr constant [53 x i8] c"\013proc_fill_super: can't allocate /proc/thread-self\0A\00", align 1
@.str.2 = private unnamed_addr constant [11 x i8] c"%u/task/%u\00", align 1
@pcpu_hot = external dso_local global %struct.pcpu_hot, section ".data..percpu..shared_aligned", align 64
@kmalloc_caches = external dso_local local_unnamed_addr global [3 x [14 x ptr]], align 16

; Function Attrs: fn_ret_thunk_extern nounwind null_pointer_is_valid
define dso_local noundef i32 @proc_setup_thread_self(ptr noundef %0) local_unnamed_addr #0 align 16 {
  %2 = getelementptr inbounds i8, ptr %0, i64 104
  %3 = load ptr, ptr %2, align 8
  %4 = getelementptr inbounds i8, ptr %3, i64 48
  %5 = load ptr, ptr %4, align 8
  %6 = getelementptr inbounds i8, ptr %0, i64 872
  %7 = load ptr, ptr %6, align 8
  %8 = getelementptr inbounds i8, ptr %5, i64 160
  tail call void @down_write(ptr noundef %8) #6
  %9 = load ptr, ptr %2, align 8
  %10 = tail call ptr @d_alloc_name(ptr noundef %9, ptr noundef nonnull @.str) #6
  %11 = icmp eq ptr %10, null
  br i1 %11, label %16, label %12

12:                                               ; preds = %1
  %13 = tail call ptr @new_inode(ptr noundef %0) #6
  %14 = icmp eq ptr %13, null
  br i1 %14, label %15, label %18

15:                                               ; preds = %12
  tail call void @dput(ptr noundef nonnull %10) #6
  br label %16

16:                                               ; preds = %1, %15
  tail call void @up_write(ptr noundef %8) #6
  %17 = tail call i32 (ptr, ...) @_printk(ptr noundef nonnull @.str.1) #7
  br label %27

18:                                               ; preds = %12
  %19 = load i32, ptr @thread_self_inum, align 4
  %20 = zext i32 %19 to i64
  %21 = getelementptr inbounds i8, ptr %13, i64 64
  store i64 %20, ptr %21, align 8
  %22 = tail call { i64, i64 } @simple_inode_init_ts(ptr noundef nonnull %13) #6
  store i16 -24065, ptr %13, align 8
  %23 = getelementptr inbounds i8, ptr %13, i64 4
  store i32 0, ptr %23, align 4
  %24 = getelementptr inbounds i8, ptr %13, i64 8
  store i32 0, ptr %24, align 8
  %25 = getelementptr inbounds i8, ptr %13, i64 32
  store ptr @proc_thread_self_inode_operations, ptr %25, align 8
  tail call void @d_add(ptr noundef nonnull %10, ptr noundef nonnull %13) #6
  tail call void @up_write(ptr noundef %8) #6
  %26 = getelementptr inbounds i8, ptr %7, i64 16
  store ptr %10, ptr %26, align 8
  br label %27

27:                                               ; preds = %18, %16
  %28 = phi i32 [ 0, %18 ], [ -12, %16 ]
  ret i32 %28
}

; Function Attrs: null_pointer_is_valid
declare dso_local ptr @d_alloc_name(ptr noundef, ptr noundef) local_unnamed_addr #1

; Function Attrs: null_pointer_is_valid
declare dso_local ptr @new_inode(ptr noundef) local_unnamed_addr #1

; Function Attrs: null_pointer_is_valid
declare dso_local { i64, i64 } @simple_inode_init_ts(ptr noundef) local_unnamed_addr #1

; Function Attrs: null_pointer_is_valid
declare dso_local void @d_add(ptr noundef, ptr noundef) local_unnamed_addr #1

; Function Attrs: null_pointer_is_valid
declare dso_local void @dput(ptr noundef) local_unnamed_addr #1

; Function Attrs: cold null_pointer_is_valid
declare dso_local i32 @_printk(ptr noundef, ...) local_unnamed_addr #2

; Function Attrs: cold fn_ret_thunk_extern nounwind null_pointer_is_valid optsize
define dso_local void @proc_thread_self_init() local_unnamed_addr #3 section ".init.text" align 16 {
  %1 = tail call i32 @proc_alloc_inum(ptr noundef nonnull @thread_self_inum) #6
  ret void
}

; Function Attrs: null_pointer_is_valid
declare dso_local i32 @proc_alloc_inum(ptr noundef) local_unnamed_addr #1

; Function Attrs: null_pointer_is_valid
declare dso_local void @down_write(ptr noundef) local_unnamed_addr #1

; Function Attrs: fn_ret_thunk_extern nounwind null_pointer_is_valid
define internal noundef ptr @proc_thread_self_get_link(ptr noundef readnone %0, ptr nocapture noundef readonly %1, ptr nocapture noundef writeonly %2) #0 align 16 {
  %4 = getelementptr inbounds i8, ptr %1, i64 40
  %5 = load ptr, ptr %4, align 8
  %6 = getelementptr inbounds i8, ptr %5, i64 872
  %7 = load ptr, ptr %6, align 8
  %8 = load ptr, ptr %7, align 8
  %9 = tail call i64 asm "movq %gs:${1:P}, $0", "=r,p,~{dirflag},~{fpsr},~{flags}"(ptr nonnull @pcpu_hot) #8, !srcloc !5
  %10 = inttoptr i64 %9 to ptr
  %11 = tail call i32 @__task_pid_nr_ns(ptr noundef %10, i32 noundef 1, ptr noundef %8) #6
  %12 = tail call i32 @__task_pid_nr_ns(ptr noundef %10, i32 noundef 0, ptr noundef %8) #6
  %13 = icmp eq i32 %12, 0
  br i1 %13, label %25, label %14

14:                                               ; preds = %3
  %15 = icmp eq ptr %0, null
  %16 = select i1 %15, i32 2080, i32 3264
  %17 = load ptr, ptr getelementptr inbounds ([3 x [14 x ptr]], ptr @kmalloc_caches, i64 0, i64 0, i64 5), align 8
  %18 = tail call noalias align 8 dereferenceable_or_null(27) ptr @kmalloc_trace(ptr noundef %17, i32 noundef %16, i64 noundef 27) #9
  %19 = icmp eq ptr %18, null
  br i1 %19, label %20, label %22, !prof !6

20:                                               ; preds = %14
  %21 = select i1 %15, ptr inttoptr (i64 -10 to ptr), ptr inttoptr (i64 -12 to ptr)
  br label %25

22:                                               ; preds = %14
  %23 = tail call i32 (ptr, ptr, ...) @sprintf(ptr noundef nonnull dereferenceable(1) %18, ptr noundef nonnull dereferenceable(1) @.str.2, i32 noundef %11, i32 noundef %12) #6
  store ptr @kfree_link, ptr %2, align 8
  %24 = getelementptr inbounds i8, ptr %2, i64 8
  store ptr %18, ptr %24, align 8
  br label %25

25:                                               ; preds = %22, %20, %3
  %26 = phi ptr [ %18, %22 ], [ inttoptr (i64 -2 to ptr), %3 ], [ %21, %20 ]
  ret ptr %26
}

; Function Attrs: nofree nounwind null_pointer_is_valid
declare dso_local noundef i32 @sprintf(ptr noalias nocapture noundef writeonly, ptr nocapture noundef readonly, ...) local_unnamed_addr #4

; Function Attrs: null_pointer_is_valid
declare dso_local void @kfree_link(ptr noundef) #1

; Function Attrs: null_pointer_is_valid
declare dso_local i32 @__task_pid_nr_ns(ptr noundef, i32 noundef, ptr noundef) local_unnamed_addr #1

; Function Attrs: null_pointer_is_valid allocsize(2)
declare dso_local noalias ptr @kmalloc_trace(ptr noundef, i32 noundef, i64 noundef) local_unnamed_addr #5

; Function Attrs: null_pointer_is_valid
declare dso_local void @up_write(ptr noundef) local_unnamed_addr #1


!llvm.module.flags = !{!0, !1, !2, !3, !4}

!0 = !{i32 1, !"wchar_size", i32 2}
!1 = !{i32 8, !"cf-protection-branch", i32 1}
!2 = !{i32 4, !"function_return_thunk_extern", i32 1}
!3 = !{i32 4, !"indirect_branch_cs_prefix", i32 1}
!4 = !{i32 4, !"SkipRaxSetup", i32 1}
!5 = !{i64 2147835139}
!6 = !{!"branch_weights", i32 1, i32 2000}
